target datalayout = "e-m:e-p270:32:32-p271:32:32-p272:64:64-i64:64-i128:128-f80:128-n8:16:32:64-S128"
target triple = "x86_64-pc-linux-gnu"

%struct.PJconsts = type { ptr, ptr, ptr, ptr, ptr, ptr, ptr, ptr, ptr, ptr, ptr, ptr, i32, ptr, ptr, ptr, ptr, ptr, ptr, ptr, ptr, double, double, double, double, double, double, double, double, double, double, double, double, double, double, double, double, double, double, double, double, double, double, i32, i32, i32, i32, i32, i32, i32, i32, i32, i32, i32, ptr, ptr, ptr, ptr, ptr, ptr, double, double, double, double, double, double, double, double, double, double, double, i32, [7 x double], i32, ptr, ptr, double, double, i32, [4 x i8], %"class.std::shared_ptr", i8, double, i8, %"class.std::__cxx11::basic_string", %"class.std::__cxx11::basic_string", %"class.std::__cxx11::basic_string", i8, %"class.std::vector", i32, %"class.std::vector.3", i32, i8, i8, i8, ptr }
%"class.std::shared_ptr" = type { %"class.std::__shared_ptr" }
%"class.std::__shared_ptr" = type { ptr, %"class.std::__shared_count" }
%"class.std::__shared_count" = type { ptr }
%"class.std::__cxx11::basic_string" = type { %"struct.std::__cxx11::basic_string<char>::_Alloc_hider", i64, %union.anon }
%"struct.std::__cxx11::basic_string<char>::_Alloc_hider" = type { ptr }
%union.anon = type { i64, [8 x i8] }
%"class.std::vector" = type { %"struct.std::_Vector_base" }
%"struct.std::_Vector_base" = type { %"struct.std::_Vector_base<osgeo::proj::operation::GridDescription, std::allocator<osgeo::proj::operation::GridDescription>>::_Vector_impl" }
%"struct.std::_Vector_base<osgeo::proj::operation::GridDescription, std::allocator<osgeo::proj::operation::GridDescription>>::_Vector_impl" = type { %"struct.std::_Vector_base<osgeo::proj::operation::GridDescription, std::allocator<osgeo::proj::operation::GridDescription>>::_Vector_impl_data" }
%"struct.std::_Vector_base<osgeo::proj::operation::GridDescription, std::allocator<osgeo::proj::operation::GridDescription>>::_Vector_impl_data" = type { ptr, ptr, ptr }
%"class.std::vector.3" = type { %"struct.std::_Vector_base.4" }
%"struct.std::_Vector_base.4" = type { %"struct.std::_Vector_base<PJCoordOperation, std::allocator<PJCoordOperation>>::_Vector_impl" }
%"struct.std::_Vector_base<PJCoordOperation, std::allocator<PJCoordOperation>>::_Vector_impl" = type { %"struct.std::_Vector_base<PJCoordOperation, std::allocator<PJCoordOperation>>::_Vector_impl_data" }
%"struct.std::_Vector_base<PJCoordOperation, std::allocator<PJCoordOperation>>::_Vector_impl_data" = type { ptr, ptr, ptr }
%"struct.(anonymous namespace)::pj_ob_tran_data" = type { ptr, double, double, double }
%struct.PJ_XY = type { double, double }
%struct.PJ_LP = type { double, double }

; Function Attrs: mustprogress uwtable
define internal { double, double } @_ZL9o_inverse5PJ_XYP8PJconsts(double %0, double %1, ptr noundef %2) #0 {
  %4 = alloca %struct.PJ_LP, align 8
  %5 = alloca %struct.PJ_XY, align 8
  %6 = alloca ptr, align 8
  %7 = alloca ptr, align 8
  %8 = alloca double, align 8
  %9 = alloca double, align 8
  %10 = alloca double, align 8
  %11 = alloca %struct.PJ_XY, align 8
  %12 = getelementptr inbounds nuw { double, double }, ptr %5, i32 0, i32 0
  store double %0, ptr %12, align 8
  %13 = getelementptr inbounds nuw { double, double }, ptr %5, i32 0, i32 1
  store double %1, ptr %13, align 8
  store ptr %2, ptr %6, align 8, !tbaa !3
  call void @llvm.lifetime.start.p0(i64 8, ptr %7) #10
  %14 = load ptr, ptr %6, align 8, !tbaa !3
  %15 = getelementptr inbounds nuw %struct.PJconsts, ptr %14, i32 0, i32 11
  %16 = load ptr, ptr %15, align 8, !tbaa !43
  store ptr %16, ptr %7, align 8, !tbaa !41
  call void @llvm.lifetime.start.p0(i64 8, ptr %8) #10
  call void @llvm.lifetime.start.p0(i64 8, ptr %9) #10
  call void @llvm.lifetime.start.p0(i64 8, ptr %10) #10
  %17 = load ptr, ptr %7, align 8, !tbaa !41
  %18 = getelementptr inbounds nuw %"struct.(anonymous namespace)::pj_ob_tran_data", ptr %17, i32 0, i32 0
  %19 = load ptr, ptr %18, align 8, !tbaa !60
  %20 = getelementptr inbounds nuw %struct.PJconsts, ptr %19, i32 0, i32 14
  %21 = load ptr, ptr %20, align 8, !tbaa !67
  call void @llvm.memcpy.p0.p0.i64(ptr align 8 %11, ptr align 8 %5, i64 16, i1 false), !tbaa.struct !75
  %22 = load ptr, ptr %7, align 8, !tbaa !41
  %23 = getelementptr inbounds nuw %"struct.(anonymous namespace)::pj_ob_tran_data", ptr %22, i32 0, i32 0
  %24 = load ptr, ptr %23, align 8, !tbaa !60
  %25 = getelementptr inbounds nuw { double, double }, ptr %11, i32 0, i32 0
  %26 = load double, ptr %25, align 8
  %27 = getelementptr inbounds nuw { double, double }, ptr %11, i32 0, i32 1
  %28 = load double, ptr %27, align 8
  %29 = call { double, double } %21(double %26, double %28, ptr noundef %24)
  %30 = getelementptr inbounds nuw { double, double }, ptr %4, i32 0, i32 0
  %31 = extractvalue { double, double } %29, 0
  store double %31, ptr %30, align 8
  %32 = getelementptr inbounds nuw { double, double }, ptr %4, i32 0, i32 1
  %33 = extractvalue { double, double } %29, 1
  store double %33, ptr %32, align 8
  %34 = getelementptr inbounds nuw %struct.PJ_LP, ptr %4, i32 0, i32 0
  %35 = load double, ptr %34, align 8, !tbaa !72
  %36 = fcmp une double %35, 0x7FF0000000000000
  br i1 %36, label %37, label %90

37:                                               ; preds = %3
  %38 = load ptr, ptr %7, align 8, !tbaa !41
  %39 = getelementptr inbounds nuw %"struct.(anonymous namespace)::pj_ob_tran_data", ptr %38, i32 0, i32 1
  %40 = load double, ptr %39, align 8, !tbaa !63
  %41 = getelementptr inbounds nuw %struct.PJ_LP, ptr %4, i32 0, i32 0
  %42 = load double, ptr %41, align 8, !tbaa !72
  %43 = fsub double %42, %40
  store double %43, ptr %41, align 8, !tbaa !72
  %44 = getelementptr inbounds nuw %struct.PJ_LP, ptr %4, i32 0, i32 0
  %45 = load double, ptr %44, align 8, !tbaa !72
  %46 = call double @cos(double noundef %45) #10, !tbaa !49
  store double %46, ptr %8, align 8, !tbaa !62
  %47 = getelementptr inbounds nuw %struct.PJ_LP, ptr %4, i32 0, i32 1
  %48 = load double, ptr %47, align 8, !tbaa !74
  %49 = call double @sin(double noundef %48) #10, !tbaa !49
  store double %49, ptr %9, align 8, !tbaa !62
  %50 = getelementptr inbounds nuw %struct.PJ_LP, ptr %4, i32 0, i32 1
  %51 = load double, ptr %50, align 8, !tbaa !74
  %52 = call double @cos(double noundef %51) #10, !tbaa !49
  store double %52, ptr %10, align 8, !tbaa !62
  %53 = load ptr, ptr %6, align 8, !tbaa !3
  %54 = getelementptr inbounds nuw %struct.PJconsts, ptr %53, i32 0, i32 0
  %55 = load ptr, ptr %54, align 8, !tbaa !45
  %56 = load ptr, ptr %7, align 8, !tbaa !41
  %57 = getelementptr inbounds nuw %"struct.(anonymous namespace)::pj_ob_tran_data", ptr %56, i32 0, i32 3
  %58 = load double, ptr %57, align 8, !tbaa !65
  %59 = load double, ptr %9, align 8, !tbaa !62
  %60 = load ptr, ptr %7, align 8, !tbaa !41
  %61 = getelementptr inbounds nuw %"struct.(anonymous namespace)::pj_ob_tran_data", ptr %60, i32 0, i32 2
  %62 = load double, ptr %61, align 8, !tbaa !64
  %63 = load double, ptr %10, align 8, !tbaa !62
  %64 = fmul double %62, %63
  %65 = load double, ptr %8, align 8, !tbaa !62
  %66 = fmul double %64, %65
  %67 = call double @llvm.fmuladd.f64(double %58, double %59, double %66)
  %68 = call noundef double @_Z5aasinP6pj_ctxd(ptr noundef %55, double noundef %67)
  %69 = getelementptr inbounds nuw %struct.PJ_LP, ptr %4, i32 0, i32 1
  store double %68, ptr %69, align 8, !tbaa !74
  %70 = load double, ptr %10, align 8, !tbaa !62
  %71 = getelementptr inbounds nuw %struct.PJ_LP, ptr %4, i32 0, i32 0
  %72 = load double, ptr %71, align 8, !tbaa !72
  %73 = call double @sin(double noundef %72) #10, !tbaa !49
  %74 = fmul double %70, %73
  %75 = load ptr, ptr %7, align 8, !tbaa !41
  %76 = getelementptr inbounds nuw %"struct.(anonymous namespace)::pj_ob_tran_data", ptr %75, i32 0, i32 3
  %77 = load double, ptr %76, align 8, !tbaa !65
  %78 = load double, ptr %10, align 8, !tbaa !62
  %79 = fmul double %77, %78
  %80 = load double, ptr %8, align 8, !tbaa !62
  %81 = load ptr, ptr %7, align 8, !tbaa !41
  %82 = getelementptr inbounds nuw %"struct.(anonymous namespace)::pj_ob_tran_data", ptr %81, i32 0, i32 2
  %83 = load double, ptr %82, align 8, !tbaa !64
  %84 = load double, ptr %9, align 8, !tbaa !62
  %85 = fmul double %83, %84
  %86 = fneg double %85
  %87 = call double @llvm.fmuladd.f64(double %79, double %80, double %86)
  %88 = call noundef double @_Z6aatan2dd(double noundef %74, double noundef %87)
  %89 = getelementptr inbounds nuw %struct.PJ_LP, ptr %4, i32 0, i32 0
  store double %88, ptr %89, align 8, !tbaa !72
  br label %90

90:                                               ; preds = %37, %3
  call void @llvm.lifetime.end.p0(i64 8, ptr %10) #10
  call void @llvm.lifetime.end.p0(i64 8, ptr %9) #10
  call void @llvm.lifetime.end.p0(i64 8, ptr %8) #10
  call void @llvm.lifetime.end.p0(i64 8, ptr %7) #10
  %91 = load { double, double }, ptr %4, align 8
  ret { double, double } %91
}