; Function Attrs: mustprogress uwtable
define internal { double, double } @_ZL9o_inverse5PJ_XYP8PJconsts(double %0, double %1, ptr noundef readonly captures(none) %2) #0 {
  %4 = getelementptr inbounds nuw i8, ptr %2, i64 88
  %5 = load ptr, ptr %4, align 8, !tbaa !40
  %6 = load ptr, ptr %5, align 8, !tbaa !41
  %7 = getelementptr inbounds nuw i8, ptr %6, i64 112
  %8 = load ptr, ptr %7, align 8, !tbaa !60
  %9 = tail call { double, double } %8(double %0, double %1, ptr noundef %6)
  %10 = extractvalue { double, double } %9, 0
  %11 = fcmp une double %10, 0x7FF0000000000000
  br i1 %11, label %12, label %40

12:                                               ; preds = %3
  %13 = extractvalue { double, double } %9, 1
  %14 = getelementptr inbounds nuw i8, ptr %5, i64 8
  %15 = load double, ptr %14, align 8, !tbaa !56
  %16 = fsub double %10, %15
  %17 = tail call double @cos(double noundef %16) #9, !tbaa !55
  %18 = tail call double @sin(double noundef %13) #9, !tbaa !55
  %19 = tail call double @cos(double noundef %13) #9, !tbaa !55
  %20 = load ptr, ptr %2, align 8, !tbaa !44
  %21 = getelementptr inbounds nuw i8, ptr %5, i64 24
  %22 = load double, ptr %21, align 8, !tbaa !58
  %23 = getelementptr inbounds nuw i8, ptr %5, i64 16
  %24 = load double, ptr %23, align 8, !tbaa !57
  %25 = fmul double %19, %24
  %26 = fmul double %17, %25
  %27 = tail call double @llvm.fmuladd.f64(double %22, double %18, double %26)
  %28 = tail call noundef double @_Z5aasinP6pj_ctxd(ptr noundef %20, double noundef %27)
  %29 = tail call double @sin(double noundef %16) #9, !tbaa !55
  %30 = fmul double %19, %29
  %31 = load double, ptr %21, align 8, !tbaa !58
  %32 = fmul double %19, %31
  %33 = load double, ptr %23, align 8, !tbaa !57
  %34 = fneg double %18
  %35 = fmul double %33, %34
  %36 = tail call double @llvm.fmuladd.f64(double %32, double %17, double %35)
  %37 = tail call noundef double @_Z6aatan2dd(double noundef %30, double noundef %36)
  %38 = insertvalue { double, double } poison, double %37, 0
  %39 = insertvalue { double, double } %38, double %28, 1
  br label %40

40:                                               ; preds = %12, %3
  %.fca.1.insert.merged = phi { double, double } [ %39, %12 ], [ %9, %3 ]
  ret { double, double } %.fca.1.insert.merged
}